; Function Attrs: inlinehint mustprogress optsize uwtable
define internal noundef ptr @_ZZN8nanobind6detail11func_createILb0ELb1ERPFbRKZL29nanobind_init_test_typing_extRNS_7module_EE7WrapperS6_EbJS6_S6_EJLm0ELm1EEJNS_5scopeENS_4nameENS_9is_methodENS_11is_operatorENS_9rv_policyENS_3sigEEEEP7_objectOT1_PFT2_DpT3_ESt16integer_sequenceImJXspT4_EEEDpRKT5_ENUlPvPSH_PhSE_PNS0_12cleanup_listEE_8__invokeESV_SW_SX_SE_SZ_(ptr noundef readonly captures(none) %0, ptr noundef readonly captures(none) %1, ptr noundef readonly captures(none) %2, i32 %3, ptr noundef %4) #11 align 2 personality ptr @__gxx_personality_v0 {
  %6 = alloca %"struct.nanobind::detail::tuple.98", align 8
  call void @llvm.lifetime.start.p0(i64 16, ptr nonnull %6) #18
  %7 = getelementptr inbounds nuw i8, ptr %6, i64 8
  %8 = load ptr, ptr %1, align 8, !tbaa !126
  %9 = load i8, ptr %2, align 1, !tbaa !76
  %10 = call noundef zeroext i1 @_ZN8nanobind6detail11nb_type_getEPKSt9type_infoP7_objecthPNS0_12cleanup_listEPPv(ptr noundef nonnull @_ZTIZL29nanobind_init_test_typing_extRN8nanobind7module_EE7Wrapper, ptr noundef %8, i8 noundef zeroext %9, ptr noundef %4, ptr noundef nonnull align 8 dereferenceable(8) %7) #19
  br i1 %10, label %11, label %_ZZN8nanobind6detail11func_createILb0ELb1ERPFbRKZL29nanobind_init_test_typing_extRNS_7module_EE7WrapperS6_EbJS6_S6_EJLm0ELm1EEJNS_5scopeENS_4nameENS_9is_methodENS_11is_operatorENS_9rv_policyENS_3sigEEEEP7_objectOT1_PFT2_DpT3_ESt16integer_sequenceImJXspT4_EEEDpRKT5_ENKUlPvPSH_PhSE_PNS0_12cleanup_listEE_clESV_SW_SX_SE_SZ_.exit

11:                                               ; preds = %5
  %12 = getelementptr inbounds nuw i8, ptr %1, i64 8
  %13 = load ptr, ptr %12, align 8, !tbaa !126
  %14 = getelementptr inbounds nuw i8, ptr %2, i64 1
  %15 = load i8, ptr %14, align 1, !tbaa !76
  %16 = call noundef zeroext i1 @_ZN8nanobind6detail11nb_type_getEPKSt9type_infoP7_objecthPNS0_12cleanup_listEPPv(ptr noundef nonnull @_ZTIZL29nanobind_init_test_typing_extRN8nanobind7module_EE7Wrapper, ptr noundef %13, i8 noundef zeroext %15, ptr noundef %4, ptr noundef nonnull align 8 dereferenceable(8) %6) #19
  br i1 %16, label %17, label %_ZZN8nanobind6detail11func_createILb0ELb1ERPFbRKZL29nanobind_init_test_typing_extRNS_7module_EE7WrapperS6_EbJS6_S6_EJLm0ELm1EEJNS_5scopeENS_4nameENS_9is_methodENS_11is_operatorENS_9rv_policyENS_3sigEEEEP7_objectOT1_PFT2_DpT3_ESt16integer_sequenceImJXspT4_EEEDpRKT5_ENKUlPvPSH_PhSE_PNS0_12cleanup_listEE_clESV_SW_SX_SE_SZ_.exit

17:                                               ; preds = %11
  %18 = load ptr, ptr %0, align 8, !tbaa !117
  %19 = load ptr, ptr %7, align 8, !tbaa !176
  call void @_ZN8nanobind6detail27raise_next_overload_if_nullEPv(ptr noundef %19) #17
  %20 = load ptr, ptr %7, align 8, !tbaa !176
  %21 = load ptr, ptr %6, align 8, !tbaa !176
  call void @_ZN8nanobind6detail27raise_next_overload_if_nullEPv(ptr noundef %21) #17
  %22 = load ptr, ptr %6, align 8, !tbaa !176
  %23 = call noundef zeroext i1 %18(ptr noundef nonnull align 8 dereferenceable(8) %20, ptr noundef nonnull align 8 dereferenceable(8) %22) #17
  %24 = select i1 %23, ptr @_Py_TrueStruct, ptr @_Py_FalseStruct
  %25 = load i64, ptr %24, align 8, !tbaa !70
  %26 = add nsw i64 %25, 1
  store i64 %26, ptr %24, align 8, !tbaa !70
  br label %_ZZN8nanobind6detail11func_createILb0ELb1ERPFbRKZL29nanobind_init_test_typing_extRNS_7module_EE7WrapperS6_EbJS6_S6_EJLm0ELm1EEJNS_5scopeENS_4nameENS_9is_methodENS_11is_operatorENS_9rv_policyENS_3sigEEEEP7_objectOT1_PFT2_DpT3_ESt16integer_sequenceImJXspT4_EEEDpRKT5_ENKUlPvPSH_PhSE_PNS0_12cleanup_listEE_clESV_SW_SX_SE_SZ_.exit

_ZZN8nanobind6detail11func_createILb0ELb1ERPFbRKZL29nanobind_init_test_typing_extRNS_7module_EE7WrapperS6_EbJS6_S6_EJLm0ELm1EEJNS_5scopeENS_4nameENS_9is_methodENS_11is_operatorENS_9rv_policyENS_3sigEEEEP7_objectOT1_PFT2_DpT3_ESt16integer_sequenceImJXspT4_EEEDpRKT5_ENKUlPvPSH_PhSE_PNS0_12cleanup_listEE_clESV_SW_SX_SE_SZ_.exit: ; preds = %5, %11, %17
  %.0.i = phi ptr [ %24, %17 ], [ inttoptr (i64 1 to ptr), %11 ], [ inttoptr (i64 1 to ptr), %5 ]
  call void @llvm.lifetime.end.p0(i64 16, ptr nonnull %6) #18
  ret ptr %.0.i
}